target datalayout = "e-m:e-p270:32:32-p271:32:32-p272:64:64-i64:64-i128:128-f80:128-n8:16:32:64-S128"
target triple = "x86_64-pc-linux-gnu"

%struct.opj_stream_private = type { ptr, ptr, i64, ptr, ptr, ptr, ptr, ptr, ptr, ptr, ptr, i64, i64, i64, i32 }

; Function Attrs: nounwind uwtable
define hidden void @opj_stream_set_read_function(ptr noundef %0, ptr noundef %1) #0 {
  %3 = alloca ptr, align 8
  %4 = alloca ptr, align 8
  %5 = alloca ptr, align 8
  %6 = alloca i32, align 4
  store ptr %0, ptr %3, align 8, !tbaa !52
  store ptr %1, ptr %4, align 8, !tbaa !51
  call void @llvm.lifetime.start.p0(i64 8, ptr %5) #4
  %7 = load ptr, ptr %3, align 8, !tbaa !52
  store ptr %7, ptr %5, align 8, !tbaa !30
  %8 = load ptr, ptr %5, align 8, !tbaa !30
  %9 = icmp ne ptr %8, null
  br i1 %9, label %10, label %16

10:                                               ; preds = %2
  %11 = load ptr, ptr %5, align 8, !tbaa !30
  %12 = getelementptr inbounds nuw %struct.opj_stream_private, ptr %11, i32 0, i32 14
  %13 = load i32, ptr %12, align 8, !tbaa !36
  %14 = and i32 %13, 2
  %15 = icmp ne i32 %14, 0
  br i1 %15, label %17, label %16

16:                                               ; preds = %10, %2
  store i32 1, ptr %6, align 4
  br label %21

17:                                               ; preds = %10
  %18 = load ptr, ptr %4, align 8, !tbaa !51
  %19 = load ptr, ptr %5, align 8, !tbaa !30
  %20 = getelementptr inbounds nuw %struct.opj_stream_private, ptr %19, i32 0, i32 3
  store ptr %18, ptr %20, align 8, !tbaa !39
  store i32 0, ptr %6, align 4
  br label %21

21:                                               ; preds = %17, %16
  call void @llvm.lifetime.end.p0(i64 8, ptr %5) #4
  %22 = load i32, ptr %6, align 4
  switch i32 %22, label %24 [
    i32 0, label %23
    i32 1, label %23
  ]

23:                                               ; preds = %21, %21
  ret void

24:                                               ; preds = %21
  unreachable
}